; Function Attrs: mustprogress uwtable
define hidden void @_ZN4cvc58internal20UnknownTypeExceptionC2ENS0_12NodeTemplateILb0EEE(ptr noundef nonnull align 8 dereferenceable(48) %this, ptr nocapture noundef readonly %n) unnamed_addr #3 align 2 personality ptr @__gxx_personality_v0 {
entry:
  %agg.tmp = alloca %"class.cvc5::internal::NodeTemplate.1", align 8
  %agg.tmp2 = alloca %"class.std::__cxx11::basic_string", align 8
  %ref.tmp = alloca %"class.std::allocator.68", align 1
  %0 = load ptr, ptr %n, align 8
  store ptr %0, ptr %agg.tmp, align 8
  call void @_ZNSaIcEC1Ev(ptr noundef nonnull align 1 dereferenceable(1) %ref.tmp) #15
  %call.i2 = invoke noundef ptr @_ZNSt7__cxx1112basic_stringIcSt11char_traitsIcESaIcEE13_M_local_dataEv(ptr noundef nonnull align 8 dereferenceable(32) %agg.tmp2)
          to label %call.i.noexc unwind label %lpad

call.i.noexc:                                     ; preds = %entry
  invoke void @_ZNSt7__cxx1112basic_stringIcSt11char_traitsIcESaIcEE12_Alloc_hiderC1EPcRKS3_(ptr noundef nonnull align 8 dereferenceable(8) %agg.tmp2, ptr noundef %call.i2, ptr noundef nonnull align 1 dereferenceable(1) %ref.tmp)
          to label %.noexc unwind label %lpad

.noexc:                                           ; preds = %call.i.noexc
  invoke void @_ZNSt7__cxx1112basic_stringIcSt11char_traitsIcESaIcEE12_M_constructIPKcEEvT_S8_St20forward_iterator_tag(ptr noundef nonnull align 8 dereferenceable(32) %agg.tmp2, ptr noundef nonnull @.str.10, ptr noundef nonnull getelementptr inbounds ([138 x i8], ptr @.str.10, i64 0, i64 137))
          to label %invoke.cont unwind label %lpad.i

lpad.i:                                           ; preds = %.noexc
  %1 = landingpad { ptr, i32 }
          cleanup
  call void @_ZNSaIcED2Ev(ptr noundef nonnull align 1 dereferenceable(1) %agg.tmp2) #15
  br label %ehcleanup

invoke.cont:                                      ; preds = %.noexc
  invoke void @_ZN4cvc58internal28TypeCheckingExceptionPrivateC2ENS0_12NodeTemplateILb0EEENSt7__cxx1112basic_stringIcSt11char_traitsIcESaIcEEE(ptr noundef nonnull align 8 dereferenceable(48) %this, ptr noundef nonnull %agg.tmp, ptr noundef nonnull %agg.tmp2)
          to label %invoke.cont4 unwind label %lpad3

invoke.cont4:                                     ; preds = %invoke.cont
  call void @_ZNSt7__cxx1112basic_stringIcSt11char_traitsIcESaIcEED1Ev(ptr noundef nonnull align 8 dereferenceable(32) %agg.tmp2) #15
  call void @_ZNSaIcED1Ev(ptr noundef nonnull align 1 dereferenceable(1) %ref.tmp) #15
  store ptr getelementptr inbounds ({ [6 x ptr] }, ptr @_ZTVN4cvc58internal20UnknownTypeExceptionE, i64 0, i32 0, i64 2), ptr %this, align 8
  ret void

lpad:                                             ; preds = %call.i.noexc, %entry
  %2 = landingpad { ptr, i32 }
          cleanup
  br label %ehcleanup

lpad3:                                            ; preds = %invoke.cont
  %3 = landingpad { ptr, i32 }
          cleanup
  call void @_ZNSt7__cxx1112basic_stringIcSt11char_traitsIcESaIcEED1Ev(ptr noundef nonnull align 8 dereferenceable(32) %agg.tmp2) #15
  br label %ehcleanup

ehcleanup:                                        ; preds = %lpad, %lpad.i, %lpad3
  %.pn = phi { ptr, i32 } [ %3, %lpad3 ], [ %2, %lpad ], [ %1, %lpad.i ]
  call void @_ZNSaIcED1Ev(ptr noundef nonnull align 1 dereferenceable(1) %ref.tmp) #15
  resume { ptr, i32 } %.pn
}